; Function Attrs: nounwind uwtable
define internal void @nettrace_close(ptr noundef readonly captures(none) %0) #0 {
  %2 = getelementptr inbounds nuw i8, ptr %0, i64 96
  %3 = load ptr, ptr %2, align 8
  %.not = icmp eq ptr %3, null
  br i1 %.not, label %8, label %4

4:                                                ; preds = %1
  %5 = load ptr, ptr %3, align 8
  %.not6 = icmp eq ptr %5, null
  br i1 %.not6, label %8, label %6

6:                                                ; preds = %4
  %7 = tail call ptr @g_byte_array_free(ptr noundef nonnull %5, i32 noundef 1) #11
  store ptr null, ptr %3, align 8
  br label %8

8:                                                ; preds = %6, %4, %1
  ret void
}